target datalayout = "e-m:e-p270:32:32-p271:32:32-p272:64:64-i64:64-i128:128-f80:128-n8:16:32:64-S128"
target triple = "x86_64-pc-linux-gnu"

%class.b3Generic6DofConstraint = type { %class.b3TypedConstraint, %class.b3Transform, %class.b3Transform, %class.b3TranslationalLimitMotor, [3 x %class.b3RotationalLimitMotor], %class.b3Transform, %class.b3Transform, %class.b3Vector3, [3 x %class.b3Vector3], %class.b3Vector3, float, float, float, i8, %class.b3Vector3, i8, i8, i32, [8 x i8] }
%class.b3TypedConstraint = type { ptr, %struct.b3TypedObject, i32, %union.anon, float, i8, i8, i32, i32, i32, float, float, ptr }
%struct.b3TypedObject = type { i32 }
%union.anon = type { ptr }
%class.b3TranslationalLimitMotor = type { %class.b3Vector3, %class.b3Vector3, %class.b3Vector3, %class.b3Vector3, %class.b3Vector3, %class.b3Vector3, %class.b3Vector3, %class.b3Vector3, %class.b3Vector3, %class.b3Vector3, float, float, float, [3 x i8], [3 x i32], [4 x i8] }
%class.b3RotationalLimitMotor = type { float, float, float, float, float, float, float, float, float, float, float, i8, float, float, i32, float }
%class.b3Transform = type { %class.b3Matrix3x3, %class.b3Vector3 }
%class.b3Matrix3x3 = type { [3 x %class.b3Vector3] }
%class.b3Vector3 = type { %union.anon.0 }
%union.anon.0 = type { [4 x float] }
%struct.b3RigidBodyData = type { %class.b3Vector3, %class.b3Quaternion, %class.b3Vector3, %class.b3Vector3, i32, float, float, float }
%class.b3Quaternion = type { %class.b3QuadWord }
%class.b3QuadWord = type { %union.anon.1 }
%union.anon.1 = type { [4 x float] }

; Function Attrs: inlinehint mustprogress nounwind uwtable
define linkonce_odr dso_local void @_ZN9b3Vector38setValueERKfS1_S1_(ptr noundef nonnull align 16 dereferenceable(16) %0, ptr noundef nonnull align 4 dereferenceable(4) %1, ptr noundef nonnull align 4 dereferenceable(4) %2, ptr noundef nonnull align 4 dereferenceable(4) %3) #5 comdat align 2 {
  %5 = alloca ptr, align 8
  %6 = alloca ptr, align 8
  %7 = alloca ptr, align 8
  %8 = alloca ptr, align 8
  store ptr %0, ptr %5, align 8, !tbaa !65
  store ptr %1, ptr %6, align 8, !tbaa !98
  store ptr %2, ptr %7, align 8, !tbaa !98
  store ptr %3, ptr %8, align 8, !tbaa !98
  %9 = load ptr, ptr %5, align 8
  %10 = load ptr, ptr %6, align 8, !tbaa !98
  %11 = load float, ptr %10, align 4, !tbaa !37
  %12 = getelementptr inbounds nuw %class.b3Vector3, ptr %9, i32 0, i32 0
  %13 = getelementptr inbounds [4 x float], ptr %12, i64 0, i64 0
  store float %11, ptr %13, align 16, !tbaa !34
  %14 = load ptr, ptr %7, align 8, !tbaa !98
  %15 = load float, ptr %14, align 4, !tbaa !37
  %16 = getelementptr inbounds nuw %class.b3Vector3, ptr %9, i32 0, i32 0
  %17 = getelementptr inbounds [4 x float], ptr %16, i64 0, i64 1
  store float %15, ptr %17, align 4, !tbaa !34
  %18 = load ptr, ptr %8, align 8, !tbaa !98
  %19 = load float, ptr %18, align 4, !tbaa !37
  %20 = getelementptr inbounds nuw %class.b3Vector3, ptr %9, i32 0, i32 0
  %21 = getelementptr inbounds [4 x float], ptr %20, i64 0, i64 2
  store float %19, ptr %21, align 8, !tbaa !34
  %22 = getelementptr inbounds nuw %class.b3Vector3, ptr %9, i32 0, i32 0
  %23 = getelementptr inbounds [4 x float], ptr %22, i64 0, i64 3
  store float 0.000000e+00, ptr %23, align 4, !tbaa !34
  ret void
}

; Function Attrs: inlinehint mustprogress nounwind uwtable
define linkonce_odr dso_local { <2 x float>, <2 x float> } @_Z13b3MakeVector3fff(float noundef %0, float noundef %1, float noundef %2) #5 comdat {
  %4 = alloca %class.b3Vector3, align 16
  %5 = alloca float, align 4
  %6 = alloca float, align 4
  %7 = alloca float, align 4
  store float %0, ptr %5, align 4, !tbaa !37
  store float %1, ptr %6, align 4, !tbaa !37
  store float %2, ptr %7, align 4, !tbaa !37
  call void @_ZN9b3Vector38setValueERKfS1_S1_(ptr noundef nonnull align 16 dereferenceable(16) %4, ptr noundef nonnull align 4 dereferenceable(4) %5, ptr noundef nonnull align 4 dereferenceable(4) %6, ptr noundef nonnull align 4 dereferenceable(4) %7)
  %8 = getelementptr inbounds nuw %class.b3Vector3, ptr %4, i32 0, i32 0
  %9 = getelementptr inbounds nuw %union.anon.0, ptr %8, i32 0, i32 0
  %10 = load { <2 x float>, <2 x float> }, ptr %9, align 16
  ret { <2 x float>, <2 x float> } %10
}

; Function Attrs: inlinehint mustprogress nounwind uwtable
define linkonce_odr dso_local { <2 x float>, <2 x float> } @_ZplRK9b3Vector3S1_(ptr noundef nonnull align 16 dereferenceable(16) %0, ptr noundef nonnull align 16 dereferenceable(16) %1) #8 comdat {
  %3 = alloca %class.b3Vector3, align 16
  %4 = alloca ptr, align 8
  %5 = alloca ptr, align 8
  store ptr %0, ptr %4, align 8, !tbaa !65
  store ptr %1, ptr %5, align 8, !tbaa !65
  %6 = load ptr, ptr %4, align 8, !tbaa !65
  %7 = getelementptr inbounds nuw %class.b3Vector3, ptr %6, i32 0, i32 0
  %8 = getelementptr inbounds [4 x float], ptr %7, i64 0, i64 0
  %9 = load float, ptr %8, align 16, !tbaa !34
  %10 = load ptr, ptr %5, align 8, !tbaa !65
  %11 = getelementptr inbounds nuw %class.b3Vector3, ptr %10, i32 0, i32 0
  %12 = getelementptr inbounds [4 x float], ptr %11, i64 0, i64 0
  %13 = load float, ptr %12, align 16, !tbaa !34
  %14 = fadd float %9, %13
  %15 = load ptr, ptr %4, align 8, !tbaa !65
  %16 = getelementptr inbounds nuw %class.b3Vector3, ptr %15, i32 0, i32 0
  %17 = getelementptr inbounds [4 x float], ptr %16, i64 0, i64 1
  %18 = load float, ptr %17, align 4, !tbaa !34
  %19 = load ptr, ptr %5, align 8, !tbaa !65
  %20 = getelementptr inbounds nuw %class.b3Vector3, ptr %19, i32 0, i32 0
  %21 = getelementptr inbounds [4 x float], ptr %20, i64 0, i64 1
  %22 = load float, ptr %21, align 4, !tbaa !34
  %23 = fadd float %18, %22
  %24 = load ptr, ptr %4, align 8, !tbaa !65
  %25 = getelementptr inbounds nuw %class.b3Vector3, ptr %24, i32 0, i32 0
  %26 = getelementptr inbounds [4 x float], ptr %25, i64 0, i64 2
  %27 = load float, ptr %26, align 8, !tbaa !34
  %28 = load ptr, ptr %5, align 8, !tbaa !65
  %29 = getelementptr inbounds nuw %class.b3Vector3, ptr %28, i32 0, i32 0
  %30 = getelementptr inbounds [4 x float], ptr %29, i64 0, i64 2
  %31 = load float, ptr %30, align 8, !tbaa !34
  %32 = fadd float %27, %31
  %33 = call { <2 x float>, <2 x float> } @_Z13b3MakeVector3fff(float noundef %14, float noundef %23, float noundef %32)
  %34 = getelementptr inbounds nuw %class.b3Vector3, ptr %3, i32 0, i32 0
  %35 = getelementptr inbounds nuw %union.anon.0, ptr %34, i32 0, i32 0
  %36 = getelementptr inbounds nuw { <2 x float>, <2 x float> }, ptr %35, i32 0, i32 0
  %37 = extractvalue { <2 x float>, <2 x float> } %33, 0
  store <2 x float> %37, ptr %36, align 16
  %38 = getelementptr inbounds nuw { <2 x float>, <2 x float> }, ptr %35, i32 0, i32 1
  %39 = extractvalue { <2 x float>, <2 x float> } %33, 1
  store <2 x float> %39, ptr %38, align 8
  %40 = getelementptr inbounds nuw %class.b3Vector3, ptr %3, i32 0, i32 0
  %41 = getelementptr inbounds nuw %union.anon.0, ptr %40, i32 0, i32 0
  %42 = load { <2 x float>, <2 x float> }, ptr %41, align 16
  ret { <2 x float>, <2 x float> } %42
}

; Function Attrs: inlinehint mustprogress nounwind uwtable
define linkonce_odr dso_local { <2 x float>, <2 x float> } @_ZmlRK9b3Vector3RKf(ptr noundef nonnull align 16 dereferenceable(16) %0, ptr noundef nonnull align 4 dereferenceable(4) %1) #8 comdat {
  %3 = alloca %class.b3Vector3, align 16
  %4 = alloca ptr, align 8
  %5 = alloca ptr, align 8
  store ptr %0, ptr %4, align 8, !tbaa !65
  store ptr %1, ptr %5, align 8, !tbaa !98
  %6 = load ptr, ptr %4, align 8, !tbaa !65
  %7 = getelementptr inbounds nuw %class.b3Vector3, ptr %6, i32 0, i32 0
  %8 = getelementptr inbounds [4 x float], ptr %7, i64 0, i64 0
  %9 = load float, ptr %8, align 16, !tbaa !34
  %10 = load ptr, ptr %5, align 8, !tbaa !98
  %11 = load float, ptr %10, align 4, !tbaa !37
  %12 = fmul float %9, %11
  %13 = load ptr, ptr %4, align 8, !tbaa !65
  %14 = getelementptr inbounds nuw %class.b3Vector3, ptr %13, i32 0, i32 0
  %15 = getelementptr inbounds [4 x float], ptr %14, i64 0, i64 1
  %16 = load float, ptr %15, align 4, !tbaa !34
  %17 = load ptr, ptr %5, align 8, !tbaa !98
  %18 = load float, ptr %17, align 4, !tbaa !37
  %19 = fmul float %16, %18
  %20 = load ptr, ptr %4, align 8, !tbaa !65
  %21 = getelementptr inbounds nuw %class.b3Vector3, ptr %20, i32 0, i32 0
  %22 = getelementptr inbounds [4 x float], ptr %21, i64 0, i64 2
  %23 = load float, ptr %22, align 8, !tbaa !34
  %24 = load ptr, ptr %5, align 8, !tbaa !98
  %25 = load float, ptr %24, align 4, !tbaa !37
  %26 = fmul float %23, %25
  %27 = call { <2 x float>, <2 x float> } @_Z13b3MakeVector3fff(float noundef %12, float noundef %19, float noundef %26)
  %28 = getelementptr inbounds nuw %class.b3Vector3, ptr %3, i32 0, i32 0
  %29 = getelementptr inbounds nuw %union.anon.0, ptr %28, i32 0, i32 0
  %30 = getelementptr inbounds nuw { <2 x float>, <2 x float> }, ptr %29, i32 0, i32 0
  %31 = extractvalue { <2 x float>, <2 x float> } %27, 0
  store <2 x float> %31, ptr %30, align 16
  %32 = getelementptr inbounds nuw { <2 x float>, <2 x float> }, ptr %29, i32 0, i32 1
  %33 = extractvalue { <2 x float>, <2 x float> } %27, 1
  store <2 x float> %33, ptr %32, align 8
  %34 = getelementptr inbounds nuw %class.b3Vector3, ptr %3, i32 0, i32 0
  %35 = getelementptr inbounds nuw %union.anon.0, ptr %34, i32 0, i32 0
  %36 = load { <2 x float>, <2 x float> }, ptr %35, align 16
  ret { <2 x float>, <2 x float> } %36
}

; Function Attrs: inlinehint mustprogress nounwind uwtable
define linkonce_odr dso_local noundef nonnull align 16 dereferenceable(16) ptr @_ZN11b3Transform9getOriginEv(ptr noundef nonnull align 16 dereferenceable(64) %0) #5 comdat align 2 {
  %2 = alloca ptr, align 8
  store ptr %0, ptr %2, align 8, !tbaa !11
  %3 = load ptr, ptr %2, align 8
  %4 = getelementptr inbounds nuw %class.b3Transform, ptr %3, i32 0, i32 1
  ret ptr %4
}

; Function Attrs: mustprogress uwtable
define dso_local void @_ZN23b3Generic6DofConstraint13calcAnchorPosEPK15b3RigidBodyData(ptr noundef nonnull align 16 dereferenceable(824) %0, ptr noundef %1) unnamed_addr #6 align 2 {
  %3 = alloca ptr, align 8
  %4 = alloca ptr, align 8
  %5 = alloca float, align 4
  %6 = alloca float, align 4
  %7 = alloca float, align 4
  %8 = alloca ptr, align 8
  %9 = alloca ptr, align 8
  %10 = alloca %class.b3Vector3, align 16
  %11 = alloca %class.b3Vector3, align 16
  %12 = alloca %class.b3Vector3, align 16
  %13 = alloca float, align 4
  store ptr %0, ptr %3, align 8, !tbaa !4
  store ptr %1, ptr %4, align 8, !tbaa !15
  %14 = load ptr, ptr %3, align 8
  call void @llvm.lifetime.start.p0(i64 4, ptr %5) #13
  %15 = load ptr, ptr %4, align 8, !tbaa !15
  %16 = getelementptr inbounds nuw %class.b3TypedConstraint, ptr %14, i32 0, i32 8
  %17 = load i32, ptr %16, align 4, !tbaa !61
  %18 = sext i32 %17 to i64
  %19 = getelementptr inbounds %struct.b3RigidBodyData, ptr %15, i64 %18
  %20 = getelementptr inbounds nuw %struct.b3RigidBodyData, ptr %19, i32 0, i32 5
  %21 = load float, ptr %20, align 4, !tbaa !67
  store float %21, ptr %5, align 4, !tbaa !37
  call void @llvm.lifetime.start.p0(i64 4, ptr %6) #13
  %22 = load ptr, ptr %4, align 8, !tbaa !15
  %23 = getelementptr inbounds nuw %class.b3TypedConstraint, ptr %14, i32 0, i32 9
  %24 = load i32, ptr %23, align 8, !tbaa !62
  %25 = sext i32 %24 to i64
  %26 = getelementptr inbounds %struct.b3RigidBodyData, ptr %22, i64 %25
  %27 = getelementptr inbounds nuw %struct.b3RigidBodyData, ptr %26, i32 0, i32 5
  %28 = load float, ptr %27, align 4, !tbaa !67
  store float %28, ptr %6, align 4, !tbaa !37
  call void @llvm.lifetime.start.p0(i64 4, ptr %7) #13
  %29 = load float, ptr %6, align 4, !tbaa !37
  %30 = fcmp oeq float %29, 0.000000e+00
  br i1 %30, label %31, label %32

31:                                               ; preds = %2
  store float 1.000000e+00, ptr %7, align 4, !tbaa !37
  br label %38

32:                                               ; preds = %2
  %33 = load float, ptr %5, align 4, !tbaa !37
  %34 = load float, ptr %5, align 4, !tbaa !37
  %35 = load float, ptr %6, align 4, !tbaa !37
  %36 = fadd float %34, %35
  %37 = fdiv float %33, %36
  store float %37, ptr %7, align 4, !tbaa !37
  br label %38

38:                                               ; preds = %32, %31
  call void @llvm.lifetime.start.p0(i64 8, ptr %8) #13
  %39 = getelementptr inbounds nuw %class.b3Generic6DofConstraint, ptr %14, i32 0, i32 5
  %40 = call noundef nonnull align 16 dereferenceable(16) ptr @_ZN11b3Transform9getOriginEv(ptr noundef nonnull align 16 dereferenceable(64) %39)
  store ptr %40, ptr %8, align 8, !tbaa !65
  call void @llvm.lifetime.start.p0(i64 8, ptr %9) #13
  %41 = getelementptr inbounds nuw %class.b3Generic6DofConstraint, ptr %14, i32 0, i32 6
  %42 = call noundef nonnull align 16 dereferenceable(16) ptr @_ZN11b3Transform9getOriginEv(ptr noundef nonnull align 16 dereferenceable(64) %41)
  store ptr %42, ptr %9, align 8, !tbaa !65
  call void @llvm.lifetime.start.p0(i64 16, ptr %10) #13
  call void @llvm.lifetime.start.p0(i64 16, ptr %11) #13
  %43 = load ptr, ptr %8, align 8, !tbaa !65
  %44 = call { <2 x float>, <2 x float> } @_ZmlRK9b3Vector3RKf(ptr noundef nonnull align 16 dereferenceable(16) %43, ptr noundef nonnull align 4 dereferenceable(4) %7)
  %45 = getelementptr inbounds nuw %class.b3Vector3, ptr %11, i32 0, i32 0
  %46 = getelementptr inbounds nuw %union.anon.0, ptr %45, i32 0, i32 0
  %47 = getelementptr inbounds nuw { <2 x float>, <2 x float> }, ptr %46, i32 0, i32 0
  %48 = extractvalue { <2 x float>, <2 x float> } %44, 0
  store <2 x float> %48, ptr %47, align 16
  %49 = getelementptr inbounds nuw { <2 x float>, <2 x float> }, ptr %46, i32 0, i32 1
  %50 = extractvalue { <2 x float>, <2 x float> } %44, 1
  store <2 x float> %50, ptr %49, align 8
  call void @llvm.lifetime.start.p0(i64 16, ptr %12) #13
  %51 = load ptr, ptr %9, align 8, !tbaa !65
  call void @llvm.lifetime.start.p0(i64 4, ptr %13) #13
  %52 = load float, ptr %7, align 4, !tbaa !37
  %53 = fsub float 1.000000e+00, %52
  store float %53, ptr %13, align 4, !tbaa !37
  %54 = call { <2 x float>, <2 x float> } @_ZmlRK9b3Vector3RKf(ptr noundef nonnull align 16 dereferenceable(16) %51, ptr noundef nonnull align 4 dereferenceable(4) %13)
  %55 = getelementptr inbounds nuw %class.b3Vector3, ptr %12, i32 0, i32 0
  %56 = getelementptr inbounds nuw %union.anon.0, ptr %55, i32 0, i32 0
  %57 = getelementptr inbounds nuw { <2 x float>, <2 x float> }, ptr %56, i32 0, i32 0
  %58 = extractvalue { <2 x float>, <2 x float> } %54, 0
  store <2 x float> %58, ptr %57, align 16
  %59 = getelementptr inbounds nuw { <2 x float>, <2 x float> }, ptr %56, i32 0, i32 1
  %60 = extractvalue { <2 x float>, <2 x float> } %54, 1
  store <2 x float> %60, ptr %59, align 8
  %61 = call { <2 x float>, <2 x float> } @_ZplRK9b3Vector3S1_(ptr noundef nonnull align 16 dereferenceable(16) %11, ptr noundef nonnull align 16 dereferenceable(16) %12)
  %62 = getelementptr inbounds nuw %class.b3Vector3, ptr %10, i32 0, i32 0
  %63 = getelementptr inbounds nuw %union.anon.0, ptr %62, i32 0, i32 0
  %64 = getelementptr inbounds nuw { <2 x float>, <2 x float> }, ptr %63, i32 0, i32 0
  %65 = extractvalue { <2 x float>, <2 x float> } %61, 0
  store <2 x float> %65, ptr %64, align 16
  %66 = getelementptr inbounds nuw { <2 x float>, <2 x float> }, ptr %63, i32 0, i32 1
  %67 = extractvalue { <2 x float>, <2 x float> } %61, 1
  store <2 x float> %67, ptr %66, align 8
  %68 = getelementptr inbounds nuw %class.b3Generic6DofConstraint, ptr %14, i32 0, i32 14
  call void @llvm.memcpy.p0.p0.i64(ptr align 16 %68, ptr align 16 %10, i64 16, i1 false), !tbaa.struct !33
  call void @llvm.lifetime.end.p0(i64 4, ptr %13) #13
  call void @llvm.lifetime.end.p0(i64 16, ptr %12) #13
  call void @llvm.lifetime.end.p0(i64 16, ptr %11) #13
  call void @llvm.lifetime.end.p0(i64 16, ptr %10) #13
  call void @llvm.lifetime.end.p0(i64 8, ptr %9) #13
  call void @llvm.lifetime.end.p0(i64 8, ptr %8) #13
  call void @llvm.lifetime.end.p0(i64 4, ptr %7) #13
  call void @llvm.lifetime.end.p0(i64 4, ptr %6) #13
  call void @llvm.lifetime.end.p0(i64 4, ptr %5) #13
  ret void
}