; Function Attrs: mustprogress nofree norecurse nosync nounwind willreturn memory(argmem: readwrite) uwtable
define dso_local void @_ZN23b3Generic6DofConstraint13calcAnchorPosEPK15b3RigidBodyData(ptr noundef nonnull align 16 captures(none) dereferenceable(824) initializes((800, 816)) %0, ptr noundef readonly captures(none) %1) unnamed_addr #15 align 2 {
  %3 = getelementptr inbounds nuw i8, ptr %0, i64 36
  %4 = load i32, ptr %3, align 4, !tbaa !46
  %5 = sext i32 %4 to i64
  %6 = getelementptr inbounds %struct.b3RigidBodyData, ptr %1, i64 %5, i32 5
  %7 = load float, ptr %6, align 4, !tbaa !75
  %8 = getelementptr inbounds nuw i8, ptr %0, i64 40
  %9 = load i32, ptr %8, align 8, !tbaa !50
  %10 = sext i32 %9 to i64
  %11 = getelementptr inbounds %struct.b3RigidBodyData, ptr %1, i64 %10, i32 5
  %12 = load float, ptr %11, align 4, !tbaa !75
  %13 = fcmp oeq float %12, 0.000000e+00
  %14 = fadd float %7, %12
  %15 = fdiv float %7, %14
  %storemerge = select i1 %13, float 1.000000e+00, float %15
  %16 = getelementptr inbounds nuw i8, ptr %0, i64 624
  %17 = getelementptr inbounds nuw i8, ptr %0, i64 688
  %18 = load float, ptr %16, align 16, !tbaa !8
  %19 = fmul float %18, %storemerge
  %20 = getelementptr inbounds nuw i8, ptr %0, i64 628
  %21 = load float, ptr %20, align 4, !tbaa !8
  %22 = fmul float %21, %storemerge
  %23 = getelementptr inbounds nuw i8, ptr %0, i64 632
  %24 = load float, ptr %23, align 8, !tbaa !8
  %25 = fmul float %storemerge, %24
  %26 = fsub float 1.000000e+00, %storemerge
  %27 = load float, ptr %17, align 16, !tbaa !8
  %28 = fmul float %27, %26
  %29 = getelementptr inbounds nuw i8, ptr %0, i64 692
  %30 = load float, ptr %29, align 4, !tbaa !8
  %31 = fmul float %26, %30
  %32 = getelementptr inbounds nuw i8, ptr %0, i64 696
  %33 = load float, ptr %32, align 8, !tbaa !8
  %34 = fmul float %26, %33
  %35 = fadd float %19, %28
  %36 = fadd float %22, %31
  %37 = fadd float %25, %34
  %.sroa.0.0.vec.insert.i.i14 = insertelement <2 x float> poison, float %35, i64 0
  %.sroa.0.4.vec.insert.i.i15 = insertelement <2 x float> %.sroa.0.0.vec.insert.i.i14, float %36, i64 1
  %.sroa.3.12.vec.insert.i.i16 = insertelement <2 x float> <float poison, float 0.000000e+00>, float %37, i64 0
  %38 = getelementptr inbounds nuw i8, ptr %0, i64 800
  store <2 x float> %.sroa.0.4.vec.insert.i.i15, ptr %38, align 16
  %.sroa.4.0..sroa_idx = getelementptr inbounds nuw i8, ptr %0, i64 808
  store <2 x float> %.sroa.3.12.vec.insert.i.i16, ptr %.sroa.4.0..sroa_idx, align 8, !tbaa !8
  ret void
}